target datalayout = "e-m:e-p270:32:32-p271:32:32-p272:64:64-i64:64-i128:128-f80:128-n8:16:32:64-S128"
target triple = "x86_64-pc-linux-gnu"

%struct.dbcs_index = type { ptr, i8, i8 }

; Function Attrs: nounwind uwtable
define internal i64 @shift_jis_decode(ptr noundef %0, ptr noundef %1, ptr noundef %2, i64 noundef %3, ptr noundef %4) #0 {
  %6 = alloca i64, align 8
  %7 = alloca ptr, align 8
  %8 = alloca ptr, align 8
  %9 = alloca ptr, align 8
  %10 = alloca i64, align 8
  %11 = alloca ptr, align 8
  %12 = alloca i8, align 1
  %13 = alloca i32, align 4
  %14 = alloca i32, align 4
  %15 = alloca i8, align 1
  %16 = alloca i8, align 1
  store ptr %0, ptr %7, align 8, !tbaa !3
  store ptr %1, ptr %8, align 8, !tbaa !21
  store ptr %2, ptr %9, align 8, !tbaa !68
  store i64 %3, ptr %10, align 8, !tbaa !28
  store ptr %4, ptr %11, align 8, !tbaa !3
  br label %17

17:                                               ; preds = %260, %258, %5
  %18 = load i64, ptr %10, align 8, !tbaa !28
  %19 = icmp sgt i64 %18, 0
  br i1 %19, label %20, label %261

20:                                               ; preds = %17
  call void @llvm.lifetime.start.p0(i64 1, ptr %12) #9
  %21 = load ptr, ptr %9, align 8, !tbaa !68
  %22 = load ptr, ptr %21, align 8, !tbaa !17
  %23 = getelementptr i8, ptr %22, i64 0
  %24 = load i8, ptr %23, align 1, !tbaa !42
  store i8 %24, ptr %12, align 1, !tbaa !42
  call void @llvm.lifetime.start.p0(i64 4, ptr %13) #9
  %25 = load i8, ptr %12, align 1, !tbaa !42
  %26 = zext i8 %25 to i32
  %27 = icmp slt i32 %26, 128
  br i1 %27, label %28, label %39

28:                                               ; preds = %20
  br label %29

29:                                               ; preds = %28
  %30 = load ptr, ptr %11, align 8, !tbaa !3
  %31 = load i8, ptr %12, align 1, !tbaa !42
  %32 = zext i8 %31 to i32
  %33 = call i32 @_PyUnicodeWriter_WriteChar(ptr noundef %30, i32 noundef %32)
  %34 = icmp slt i32 %33, 0
  br i1 %34, label %35, label %36

35:                                               ; preds = %29
  store i64 -4, ptr %6, align 8
  store i32 1, ptr %14, align 4
  br label %258

36:                                               ; preds = %29
  br label %37

37:                                               ; preds = %36
  br label %38

38:                                               ; preds = %37
  br label %249

39:                                               ; preds = %20
  %40 = load i8, ptr %12, align 1, !tbaa !42
  %41 = zext i8 %40 to i32
  %42 = icmp sge i32 %41, 161
  br i1 %42, label %43, label %59

43:                                               ; preds = %39
  %44 = load i8, ptr %12, align 1, !tbaa !42
  %45 = zext i8 %44 to i32
  %46 = icmp sle i32 %45, 223
  br i1 %46, label %47, label %59

47:                                               ; preds = %43
  br label %48

48:                                               ; preds = %47
  %49 = load ptr, ptr %11, align 8, !tbaa !3
  %50 = load i8, ptr %12, align 1, !tbaa !42
  %51 = zext i8 %50 to i32
  %52 = add i32 65216, %51
  %53 = call i32 @_PyUnicodeWriter_WriteChar(ptr noundef %49, i32 noundef %52)
  %54 = icmp slt i32 %53, 0
  br i1 %54, label %55, label %56

55:                                               ; preds = %48
  store i64 -4, ptr %6, align 8
  store i32 1, ptr %14, align 4
  br label %258

56:                                               ; preds = %48
  br label %57

57:                                               ; preds = %56
  br label %58

58:                                               ; preds = %57
  br label %248

59:                                               ; preds = %43, %39
  %60 = load i8, ptr %12, align 1, !tbaa !42
  %61 = zext i8 %60 to i32
  %62 = icmp sge i32 %61, 129
  br i1 %62, label %63, label %67

63:                                               ; preds = %59
  %64 = load i8, ptr %12, align 1, !tbaa !42
  %65 = zext i8 %64 to i32
  %66 = icmp sle i32 %65, 159
  br i1 %66, label %75, label %67

67:                                               ; preds = %63, %59
  %68 = load i8, ptr %12, align 1, !tbaa !42
  %69 = zext i8 %68 to i32
  %70 = icmp sge i32 %69, 224
  br i1 %70, label %71, label %247

71:                                               ; preds = %67
  %72 = load i8, ptr %12, align 1, !tbaa !42
  %73 = zext i8 %72 to i32
  %74 = icmp sle i32 %73, 234
  br i1 %74, label %75, label %247

75:                                               ; preds = %71, %63
  call void @llvm.lifetime.start.p0(i64 1, ptr %15) #9
  call void @llvm.lifetime.start.p0(i64 1, ptr %16) #9
  br label %76

76:                                               ; preds = %75
  %77 = load i64, ptr %10, align 8, !tbaa !28
  %78 = icmp slt i64 %77, 2
  br i1 %78, label %79, label %80

79:                                               ; preds = %76
  store i64 -2, ptr %6, align 8
  store i32 1, ptr %14, align 4
  br label %246

80:                                               ; preds = %76
  br label %81

81:                                               ; preds = %80
  br label %82

82:                                               ; preds = %81
  %83 = load ptr, ptr %9, align 8, !tbaa !68
  %84 = load ptr, ptr %83, align 8, !tbaa !17
  %85 = getelementptr i8, ptr %84, i64 1
  %86 = load i8, ptr %85, align 1, !tbaa !42
  store i8 %86, ptr %16, align 1, !tbaa !42
  %87 = load i8, ptr %16, align 1, !tbaa !42
  %88 = zext i8 %87 to i32
  %89 = icmp slt i32 %88, 64
  br i1 %89, label %102, label %90

90:                                               ; preds = %82
  %91 = load i8, ptr %16, align 1, !tbaa !42
  %92 = zext i8 %91 to i32
  %93 = icmp sgt i32 %92, 126
  br i1 %93, label %94, label %98

94:                                               ; preds = %90
  %95 = load i8, ptr %16, align 1, !tbaa !42
  %96 = zext i8 %95 to i32
  %97 = icmp slt i32 %96, 128
  br i1 %97, label %102, label %98

98:                                               ; preds = %94, %90
  %99 = load i8, ptr %16, align 1, !tbaa !42
  %100 = zext i8 %99 to i32
  %101 = icmp sgt i32 %100, 252
  br i1 %101, label %102, label %103

102:                                              ; preds = %98, %94, %82
  store i64 1, ptr %6, align 8
  store i32 1, ptr %14, align 4
  br label %246

103:                                              ; preds = %98
  %104 = load i8, ptr %12, align 1, !tbaa !42
  %105 = zext i8 %104 to i32
  %106 = icmp slt i32 %105, 224
  br i1 %106, label %107, label %111

107:                                              ; preds = %103
  %108 = load i8, ptr %12, align 1, !tbaa !42
  %109 = zext i8 %108 to i32
  %110 = sub i32 %109, 129
  br label %115

111:                                              ; preds = %103
  %112 = load i8, ptr %12, align 1, !tbaa !42
  %113 = zext i8 %112 to i32
  %114 = sub i32 %113, 193
  br label %115

115:                                              ; preds = %111, %107
  %116 = phi i32 [ %110, %107 ], [ %114, %111 ]
  %117 = trunc i32 %116 to i8
  store i8 %117, ptr %15, align 1, !tbaa !42
  %118 = load i8, ptr %16, align 1, !tbaa !42
  %119 = zext i8 %118 to i32
  %120 = icmp slt i32 %119, 128
  br i1 %120, label %121, label %125

121:                                              ; preds = %115
  %122 = load i8, ptr %16, align 1, !tbaa !42
  %123 = zext i8 %122 to i32
  %124 = sub i32 %123, 64
  br label %129

125:                                              ; preds = %115
  %126 = load i8, ptr %16, align 1, !tbaa !42
  %127 = zext i8 %126 to i32
  %128 = sub i32 %127, 65
  br label %129

129:                                              ; preds = %125, %121
  %130 = phi i32 [ %124, %121 ], [ %128, %125 ]
  %131 = trunc i32 %130 to i8
  store i8 %131, ptr %16, align 1, !tbaa !42
  %132 = load i8, ptr %15, align 1, !tbaa !42
  %133 = zext i8 %132 to i32
  %134 = mul i32 2, %133
  %135 = load i8, ptr %16, align 1, !tbaa !42
  %136 = zext i8 %135 to i32
  %137 = icmp slt i32 %136, 94
  %138 = select i1 %137, i32 0, i32 1
  %139 = add i32 %134, %138
  %140 = add i32 %139, 33
  %141 = trunc i32 %140 to i8
  store i8 %141, ptr %15, align 1, !tbaa !42
  %142 = load i8, ptr %16, align 1, !tbaa !42
  %143 = zext i8 %142 to i32
  %144 = icmp slt i32 %143, 94
  br i1 %144, label %145, label %148

145:                                              ; preds = %129
  %146 = load i8, ptr %16, align 1, !tbaa !42
  %147 = zext i8 %146 to i32
  br label %152

148:                                              ; preds = %129
  %149 = load i8, ptr %16, align 1, !tbaa !42
  %150 = zext i8 %149 to i32
  %151 = sub i32 %150, 94
  br label %152

152:                                              ; preds = %148, %145
  %153 = phi i32 [ %147, %145 ], [ %151, %148 ]
  %154 = add i32 %153, 33
  %155 = trunc i32 %154 to i8
  store i8 %155, ptr %16, align 1, !tbaa !42
  %156 = load i8, ptr %15, align 1, !tbaa !42
  %157 = zext i8 %156 to i32
  %158 = icmp eq i32 %157, 33
  br i1 %158, label %159, label %180

159:                                              ; preds = %152
  %160 = load i8, ptr %16, align 1, !tbaa !42
  %161 = zext i8 %160 to i32
  %162 = icmp eq i32 %161, 64
  br i1 %162, label %163, label %180

163:                                              ; preds = %159
  br label %164

164:                                              ; preds = %163
  %165 = load ptr, ptr %11, align 8, !tbaa !3
  %166 = call i32 @_PyUnicodeWriter_WriteChar(ptr noundef %165, i32 noundef 65340)
  %167 = icmp slt i32 %166, 0
  br i1 %167, label %168, label %169

168:                                              ; preds = %164
  store i64 -4, ptr %6, align 8
  store i32 1, ptr %14, align 4
  br label %246

169:                                              ; preds = %164
  br label %170

170:                                              ; preds = %169
  br label %171

171:                                              ; preds = %170
  br label %172

172:                                              ; preds = %171
  %173 = load ptr, ptr %9, align 8, !tbaa !68
  %174 = load ptr, ptr %173, align 8, !tbaa !17
  %175 = getelementptr i8, ptr %174, i64 2
  store ptr %175, ptr %173, align 8, !tbaa !17
  %176 = load i64, ptr %10, align 8, !tbaa !28
  %177 = sub i64 %176, 2
  store i64 %177, ptr %10, align 8, !tbaa !28
  br label %178

178:                                              ; preds = %172
  br label %179

179:                                              ; preds = %178
  store i32 2, ptr %14, align 4
  br label %246, !llvm.loop !77

180:                                              ; preds = %159, %152
  %181 = load i8, ptr %15, align 1, !tbaa !42
  %182 = zext i8 %181 to i64
  %183 = getelementptr [256 x %struct.dbcs_index], ptr @jisx0208_decmap, i64 0, i64 %182
  %184 = getelementptr inbounds nuw %struct.dbcs_index, ptr %183, i32 0, i32 0
  %185 = load ptr, ptr %184, align 16, !tbaa !78
  %186 = icmp ne ptr %185, null
  br i1 %186, label %187, label %245

187:                                              ; preds = %180
  %188 = load i8, ptr %16, align 1, !tbaa !42
  %189 = zext i8 %188 to i32
  %190 = load i8, ptr %15, align 1, !tbaa !42
  %191 = zext i8 %190 to i64
  %192 = getelementptr [256 x %struct.dbcs_index], ptr @jisx0208_decmap, i64 0, i64 %191
  %193 = getelementptr inbounds nuw %struct.dbcs_index, ptr %192, i32 0, i32 1
  %194 = load i8, ptr %193, align 8, !tbaa !80
  %195 = zext i8 %194 to i32
  %196 = icmp sge i32 %189, %195
  br i1 %196, label %197, label %245

197:                                              ; preds = %187
  %198 = load i8, ptr %16, align 1, !tbaa !42
  %199 = zext i8 %198 to i32
  %200 = load i8, ptr %15, align 1, !tbaa !42
  %201 = zext i8 %200 to i64
  %202 = getelementptr [256 x %struct.dbcs_index], ptr @jisx0208_decmap, i64 0, i64 %201
  %203 = getelementptr inbounds nuw %struct.dbcs_index, ptr %202, i32 0, i32 2
  %204 = load i8, ptr %203, align 1, !tbaa !81
  %205 = zext i8 %204 to i32
  %206 = icmp sle i32 %199, %205
  br i1 %206, label %207, label %245

207:                                              ; preds = %197
  %208 = load i8, ptr %15, align 1, !tbaa !42
  %209 = zext i8 %208 to i64
  %210 = getelementptr [256 x %struct.dbcs_index], ptr @jisx0208_decmap, i64 0, i64 %209
  %211 = getelementptr inbounds nuw %struct.dbcs_index, ptr %210, i32 0, i32 0
  %212 = load ptr, ptr %211, align 16, !tbaa !78
  %213 = load i8, ptr %16, align 1, !tbaa !42
  %214 = zext i8 %213 to i32
  %215 = load i8, ptr %15, align 1, !tbaa !42
  %216 = zext i8 %215 to i64
  %217 = getelementptr [256 x %struct.dbcs_index], ptr @jisx0208_decmap, i64 0, i64 %216
  %218 = getelementptr inbounds nuw %struct.dbcs_index, ptr %217, i32 0, i32 1
  %219 = load i8, ptr %218, align 8, !tbaa !80
  %220 = zext i8 %219 to i32
  %221 = sub i32 %214, %220
  %222 = sext i32 %221 to i64
  %223 = getelementptr i16, ptr %212, i64 %222
  %224 = load i16, ptr %223, align 2, !tbaa !70
  %225 = zext i16 %224 to i32
  store i32 %225, ptr %13, align 4, !tbaa !19
  %226 = icmp ne i32 %225, 65534
  br i1 %226, label %227, label %245

227:                                              ; preds = %207
  br label %228

228:                                              ; preds = %227
  %229 = load ptr, ptr %11, align 8, !tbaa !3
  %230 = load i32, ptr %13, align 4, !tbaa !19
  %231 = call i32 @_PyUnicodeWriter_WriteChar(ptr noundef %229, i32 noundef %230)
  %232 = icmp slt i32 %231, 0
  br i1 %232, label %233, label %234

233:                                              ; preds = %228
  store i64 -4, ptr %6, align 8
  store i32 1, ptr %14, align 4
  br label %246

234:                                              ; preds = %228
  br label %235

235:                                              ; preds = %234
  br label %236

236:                                              ; preds = %235
  br label %237

237:                                              ; preds = %236
  %238 = load ptr, ptr %9, align 8, !tbaa !68
  %239 = load ptr, ptr %238, align 8, !tbaa !17
  %240 = getelementptr i8, ptr %239, i64 2
  store ptr %240, ptr %238, align 8, !tbaa !17
  %241 = load i64, ptr %10, align 8, !tbaa !28
  %242 = sub i64 %241, 2
  store i64 %242, ptr %10, align 8, !tbaa !28
  br label %243

243:                                              ; preds = %237
  br label %244

244:                                              ; preds = %243
  store i32 2, ptr %14, align 4
  br label %246, !llvm.loop !77

245:                                              ; preds = %207, %197, %187, %180
  store i64 1, ptr %6, align 8
  store i32 1, ptr %14, align 4
  br label %246

246:                                              ; preds = %245, %244, %233, %179, %168, %102, %79
  call void @llvm.lifetime.end.p0(i64 1, ptr %16) #9
  call void @llvm.lifetime.end.p0(i64 1, ptr %15) #9
  br label %258

247:                                              ; preds = %71, %67
  store i64 1, ptr %6, align 8
  store i32 1, ptr %14, align 4
  br label %258

248:                                              ; preds = %58
  br label %249

249:                                              ; preds = %248, %38
  br label %250

250:                                              ; preds = %249
  %251 = load ptr, ptr %9, align 8, !tbaa !68
  %252 = load ptr, ptr %251, align 8, !tbaa !17
  %253 = getelementptr i8, ptr %252, i64 1
  store ptr %253, ptr %251, align 8, !tbaa !17
  %254 = load i64, ptr %10, align 8, !tbaa !28
  %255 = sub i64 %254, 1
  store i64 %255, ptr %10, align 8, !tbaa !28
  br label %256

256:                                              ; preds = %250
  br label %257

257:                                              ; preds = %256
  store i32 0, ptr %14, align 4
  br label %258

258:                                              ; preds = %257, %247, %246, %55, %35
  call void @llvm.lifetime.end.p0(i64 4, ptr %13) #9
  call void @llvm.lifetime.end.p0(i64 1, ptr %12) #9
  %259 = load i32, ptr %14, align 4
  switch i32 %259, label %264 [
    i32 0, label %260
    i32 1, label %262
    i32 2, label %17
  ]

260:                                              ; preds = %258
  br label %17, !llvm.loop !77

261:                                              ; preds = %17
  store i64 0, ptr %6, align 8
  br label %262

262:                                              ; preds = %261, %258
  %263 = load i64, ptr %6, align 8
  ret i64 %263

264:                                              ; preds = %258
  unreachable
}