; Function Attrs: nounwind uwtable
define internal range(i64 -4, 2) i64 @shift_jis_decode(ptr readnone captures(none) %0, ptr readnone captures(none) %1, ptr noundef captures(none) %2, i64 noundef %3, ptr noundef %4) #0 {
  %6 = icmp sgt i64 %3, 0
  br i1 %6, label %.lr.ph.preheader, label %.thread

.lr.ph.preheader:                                 ; preds = %5
  %.pre = load ptr, ptr %2, align 8, !tbaa !37
  br label %.lr.ph

.lr.ph:                                           ; preds = %.lr.ph.preheader, %69
  %7 = phi ptr [ %71, %69 ], [ %.pre, %.lr.ph.preheader ]
  %.06989 = phi i64 [ %72, %69 ], [ %3, %.lr.ph.preheader ]
  %8 = load i8, ptr %7, align 1, !tbaa !34
  %9 = zext i8 %8 to i32
  %10 = icmp sgt i8 %8, -1
  br i1 %10, label %11, label %14

11:                                               ; preds = %.lr.ph
  %12 = tail call i32 @_PyUnicodeWriter_WriteChar(ptr noundef %4, i32 noundef %9) #9
  %13 = icmp slt i32 %12, 0
  br i1 %13, label %.thread, label %69

14:                                               ; preds = %.lr.ph
  %15 = add nsw i8 %8, 95
  %or.cond = icmp ult i8 %15, 63
  br i1 %or.cond, label %16, label %20

16:                                               ; preds = %14
  %17 = add nuw nsw i32 %9, 65216
  %18 = tail call i32 @_PyUnicodeWriter_WriteChar(ptr noundef %4, i32 noundef %17) #9
  %19 = icmp slt i32 %18, 0
  br i1 %19, label %.thread, label %69

20:                                               ; preds = %14
  %21 = icmp ne i8 %8, -128
  %22 = icmp samesign ult i8 %8, -96
  %or.cond5 = and i1 %21, %22
  %23 = add nsw i8 %8, 32
  %or.cond8 = icmp ult i8 %23, 11
  %or.cond83 = select i1 %or.cond5, i1 true, i1 %or.cond8
  br i1 %or.cond83, label %24, label %.thread

24:                                               ; preds = %20
  %25 = icmp eq i64 %.06989, 1
  br i1 %25, label %.thread, label %26

26:                                               ; preds = %24
  %27 = getelementptr i8, ptr %7, i64 1
  %28 = load i8, ptr %27, align 1, !tbaa !34
  %29 = icmp ult i8 %28, 64
  br i1 %29, label %.thread, label %30

30:                                               ; preds = %26
  switch i8 %28, label %31 [
    i8 -1, label %.thread
    i8 -2, label %.thread
    i8 -3, label %.thread
    i8 127, label %.thread
  ]

31:                                               ; preds = %30
  %32 = icmp samesign ult i8 %8, -32
  %.v = select i1 %32, i8 127, i8 63
  %33 = add nsw i8 %.v, %8
  %34 = icmp slt i8 %28, 0
  %.v79 = select i1 %34, i8 -65, i8 -64
  %35 = add i8 %.v79, %28
  %36 = shl i8 %33, 1
  %37 = icmp ugt i8 %35, 93
  %38 = zext i1 %37 to i8
  %39 = or disjoint i8 %36, %38
  %40 = add i8 %35, -94
  %41 = select i1 %37, i8 %40, i8 %35
  %42 = add i8 %41, 33
  %43 = icmp eq i8 %39, 0
  %44 = zext i8 %42 to i64
  %45 = icmp eq i8 %42, 64
  %or.cond17 = and i1 %43, %45
  br i1 %or.cond17, label %46, label %49

46:                                               ; preds = %31
  %47 = tail call i32 @_PyUnicodeWriter_WriteChar(ptr noundef %4, i32 noundef 65340) #9
  %48 = icmp slt i32 %47, 0
  br i1 %48, label %.thread, label %69, !llvm.loop !57

49:                                               ; preds = %31
  %50 = add i8 %39, 33
  %51 = zext i8 %50 to i64
  %52 = getelementptr [256 x %struct.dbcs_index], ptr @jisx0208_decmap, i64 0, i64 %51
  %53 = load ptr, ptr %52, align 16, !tbaa !58
  %.not = icmp eq ptr %53, null
  br i1 %.not, label %.thread, label %54

54:                                               ; preds = %49
  %55 = getelementptr inbounds nuw i8, ptr %52, i64 8
  %56 = load i8, ptr %55, align 8, !tbaa !60
  %57 = zext i8 %56 to i64
  %.not80 = icmp ult i8 %42, %56
  br i1 %.not80, label %.thread, label %58

58:                                               ; preds = %54
  %59 = getelementptr inbounds nuw i8, ptr %52, i64 9
  %60 = load i8, ptr %59, align 1, !tbaa !61
  %.not81 = icmp ugt i8 %42, %60
  br i1 %.not81, label %.thread, label %61

61:                                               ; preds = %58
  %62 = sub nsw i64 %44, %57
  %63 = getelementptr i16, ptr %53, i64 %62
  %64 = load i16, ptr %63, align 2, !tbaa !49
  %.not82 = icmp eq i16 %64, -2
  br i1 %.not82, label %.thread, label %65

65:                                               ; preds = %61
  %66 = zext i16 %64 to i32
  %67 = tail call i32 @_PyUnicodeWriter_WriteChar(ptr noundef %4, i32 noundef %66) #9
  %68 = icmp slt i32 %67, 0
  br i1 %68, label %.thread, label %69, !llvm.loop !57

69:                                               ; preds = %16, %11, %65, %46
  %.sink122 = phi i64 [ 2, %46 ], [ 2, %65 ], [ 1, %11 ], [ 1, %16 ]
  %.sink = phi i64 [ -2, %46 ], [ -2, %65 ], [ -1, %11 ], [ -1, %16 ]
  %70 = load ptr, ptr %2, align 8, !tbaa !37
  %71 = getelementptr i8, ptr %70, i64 %.sink122
  store ptr %71, ptr %2, align 8, !tbaa !37
  %72 = add nsw i64 %.06989, %.sink
  %73 = icmp sgt i64 %72, 0
  br i1 %73, label %.lr.ph, label %.thread

.thread:                                          ; preds = %69, %11, %16, %24, %30, %30, %30, %30, %26, %46, %65, %61, %58, %54, %49, %20, %5
  %.3 = phi i64 [ 0, %5 ], [ 1, %20 ], [ 1, %49 ], [ 1, %54 ], [ 1, %58 ], [ 1, %61 ], [ -4, %65 ], [ -4, %46 ], [ 1, %26 ], [ 1, %30 ], [ 1, %30 ], [ 1, %30 ], [ 1, %30 ], [ -2, %24 ], [ -4, %16 ], [ -4, %11 ], [ 0, %69 ]
  ret i64 %.3
}